target datalayout = "e-m:e-p270:32:32-p271:32:32-p272:64:64-i64:64-i128:128-f80:128-n8:16:32:64-S128"
target triple = "x86_64-pc-linux-gnu"

%struct.darktable_t = type { %struct.dt_codepath_t, i32, i32, ptr, ptr, ptr, ptr, ptr, ptr, ptr, ptr, ptr, ptr, ptr, ptr, ptr, ptr, ptr, ptr, ptr, ptr, ptr, ptr, ptr, ptr, ptr, ptr, ptr, ptr, ptr, [64 x %struct.dt_pthread_mutex_t], %struct.dt_pthread_mutex_t, %struct.dt_pthread_mutex_t, %struct.dt_pthread_mutex_t, %struct.dt_pthread_mutex_t, %struct.dt_pthread_mutex_t, ptr, ptr, ptr, ptr, ptr, ptr, ptr, ptr, ptr, ptr, ptr, ptr, ptr, %struct.dt_lua_state_t, ptr, double, ptr, i32, [47 x i32], i32, i32, ptr, ptr, %struct.dt_sys_resources_t, %struct.dt_backthumb_t, %struct.dt_gimp_t }
%struct.dt_codepath_t = type { i8, [3 x i8] }
%struct.dt_pthread_mutex_t = type { %union.pthread_mutex_t }
%union.pthread_mutex_t = type { %struct.__pthread_mutex_s }
%struct.__pthread_mutex_s = type { i32, i32, i32, i32, i32, i16, i16, %struct.__pthread_internal_list }
%struct.__pthread_internal_list = type { ptr, ptr }
%struct.dt_lua_state_t = type { i32 }
%struct.dt_sys_resources_t = type { i64, i64, ptr, ptr, i32 }
%struct.dt_backthumb_t = type { double, double, i32, i32, i32, i32 }
%struct.dt_gimp_t = type { i32, ptr, ptr, i32, i32 }
%struct.dt_lib_module_info_t = type { ptr, i32, ptr, i32, ptr }
%struct.dt_gui_gtk_t = type { ptr, %struct.dt_gui_widgets_t, %struct.dt_gui_scrollbars_t, i32, ptr, i32, [39 x %struct._GdkRGBA], i32, i32, i32, i32, i32, double, double, double, double, ptr, double, double, double, double, i32, i32, [4096 x i8], i32, i32, i32, %struct.dt_pthread_mutex_t }
%struct.dt_gui_widgets_t = type { ptr, ptr, ptr, ptr, i32, i32, i32 }
%struct.dt_gui_scrollbars_t = type { ptr, ptr, i32 }
%struct._GdkRGBA = type { double, double, double, double }

@darktable = external global %struct.darktable_t, align 8
@.str.2 = private unnamed_addr constant [41 x i8] c"[sql] %s:%d, function %s(): prepare \22%s\22\00", align 1
@.str.3 = private unnamed_addr constant [112 x i8] c"generated/home/dtcxzyw/WorkSpace/Projects/compilers/llvm-opt-benchmark/bench/darktable/darktable/src/libs/lib.c\00", align 1
@stderr = external global ptr, align 8
@.str.5 = private unnamed_addr constant [53 x i8] c"sqlite3 error: %s:%d, function %s(), query \22%s\22: %s\0A\00", align 1
@.str.6 = private unnamed_addr constant [41 x i8] c"sqlite3 error: %s:%d, function %s(): %s\0A\00", align 1
@__FUNCTION__.edit_preset = private unnamed_addr constant [12 x i8] c"edit_preset\00", align 1
@.str.69 = private unnamed_addr constant [86 x i8] c"SELECT rowid FROM data.presets WHERE name = ?1 AND operation = ?2 AND op_version = ?3\00", align 1

; Function Attrs: nounwind uwtable
define internal void @edit_preset(ptr noundef %0, ptr noundef %1) #0 {
  %3 = alloca ptr, align 8
  %4 = alloca ptr, align 8
  %5 = alloca ptr, align 8
  %6 = alloca i32, align 4
  %7 = alloca i32, align 4
  %8 = alloca ptr, align 8
  %9 = alloca i32, align 4
  %10 = alloca i32, align 4
  %11 = alloca i32, align 4
  %12 = alloca i32, align 4
  %13 = alloca ptr, align 8
  store ptr %0, ptr %3, align 8, !tbaa !63
  store ptr %1, ptr %4, align 8, !tbaa !66
  call void @llvm.lifetime.start.p0(i64 8, ptr %5) #12
  store ptr null, ptr %5, align 8, !tbaa !63
  %14 = load ptr, ptr %3, align 8, !tbaa !63
  %15 = icmp eq ptr %14, null
  br i1 %15, label %16, label %23

16:                                               ; preds = %2
  %17 = load ptr, ptr %4, align 8, !tbaa !66
  %18 = call ptr @dt_lib_get_active_preset_name(ptr noundef %17)
  store ptr %18, ptr %5, align 8, !tbaa !63
  %19 = load ptr, ptr %5, align 8, !tbaa !63
  %20 = icmp eq ptr %19, null
  br i1 %20, label %21, label %22

21:                                               ; preds = %16
  store i32 1, ptr %6, align 4
  br label %121

22:                                               ; preds = %16
  br label %26

23:                                               ; preds = %2
  %24 = load ptr, ptr %3, align 8, !tbaa !63
  %25 = call noalias ptr @g_strdup(ptr noundef %24)
  store ptr %25, ptr %5, align 8, !tbaa !63
  br label %26

26:                                               ; preds = %23, %22
  call void @llvm.lifetime.start.p0(i64 4, ptr %7) #12
  store i32 -1, ptr %7, align 4, !tbaa !62
  call void @llvm.lifetime.start.p0(i64 8, ptr %8) #12
  br label %27

27:                                               ; preds = %26
  br label %28

28:                                               ; preds = %27
  %29 = load i32, ptr getelementptr inbounds nuw (%struct.darktable_t, ptr @darktable, i32 0, i32 2), align 8, !tbaa !21
  %30 = and i32 256, %29
  %31 = icmp ne i32 %30, 0
  br i1 %31, label %32, label %38

32:                                               ; preds = %28
  %33 = load i32, ptr getelementptr inbounds nuw (%struct.darktable_t, ptr @darktable, i32 0, i32 2), align 8, !tbaa !21
  %34 = xor i32 %33, -1
  %35 = and i32 0, %34
  %36 = icmp ne i32 %35, 0
  br i1 %36, label %38, label %37

37:                                               ; preds = %32
  call void (ptr, ...) @dt_print_ext(ptr noundef @.str.2, ptr noundef @.str.3, i32 noundef 127, ptr noundef @__FUNCTION__.edit_preset, ptr noundef @.str.69)
  br label %38

38:                                               ; preds = %37, %32, %28
  br label %39

39:                                               ; preds = %38
  br label %40

40:                                               ; preds = %39
  call void @llvm.lifetime.start.p0(i64 4, ptr %9) #12
  %41 = load ptr, ptr getelementptr inbounds nuw (%struct.darktable_t, ptr @darktable, i32 0, i32 18), align 8, !tbaa !68
  %42 = call ptr @dt_database_get(ptr noundef %41)
  %43 = call i32 @sqlite3_prepare_v2(ptr noundef %42, ptr noundef @.str.69, i32 noundef -1, ptr noundef %8, ptr noundef null)
  store i32 %43, ptr %9, align 4, !tbaa !62
  %44 = load i32, ptr %9, align 4, !tbaa !62
  %45 = icmp ne i32 %44, 0
  br i1 %45, label %46, label %52

46:                                               ; preds = %40
  %47 = load ptr, ptr @stderr, align 8, !tbaa !69
  %48 = load ptr, ptr getelementptr inbounds nuw (%struct.darktable_t, ptr @darktable, i32 0, i32 18), align 8, !tbaa !68
  %49 = call ptr @dt_database_get(ptr noundef %48)
  %50 = call ptr @sqlite3_errmsg(ptr noundef %49)
  %51 = call i32 (ptr, ptr, ...) @fprintf(ptr noundef %47, ptr noundef @.str.5, ptr noundef @.str.3, i32 noundef 127, ptr noundef @__FUNCTION__.edit_preset, ptr noundef @.str.69, ptr noundef %50) #12
  br label %52

52:                                               ; preds = %46, %40
  call void @llvm.lifetime.end.p0(i64 4, ptr %9) #12
  br label %53

53:                                               ; preds = %52
  br label %54

54:                                               ; preds = %53
  call void @llvm.lifetime.start.p0(i64 4, ptr %10) #12
  %55 = load ptr, ptr %8, align 8, !tbaa !71
  %56 = load ptr, ptr %5, align 8, !tbaa !63
  %57 = call i32 @sqlite3_bind_text(ptr noundef %55, i32 noundef 1, ptr noundef %56, i32 noundef -1, ptr noundef inttoptr (i64 -1 to ptr))
  store i32 %57, ptr %10, align 4, !tbaa !62
  %58 = load i32, ptr %10, align 4, !tbaa !62
  %59 = icmp ne i32 %58, 0
  br i1 %59, label %60, label %66

60:                                               ; preds = %54
  %61 = load ptr, ptr @stderr, align 8, !tbaa !69
  %62 = load ptr, ptr getelementptr inbounds nuw (%struct.darktable_t, ptr @darktable, i32 0, i32 18), align 8, !tbaa !68
  %63 = call ptr @dt_database_get(ptr noundef %62)
  %64 = call ptr @sqlite3_errmsg(ptr noundef %63)
  %65 = call i32 (ptr, ptr, ...) @fprintf(ptr noundef %61, ptr noundef @.str.6, ptr noundef @.str.3, i32 noundef 129, ptr noundef @__FUNCTION__.edit_preset, ptr noundef %64) #12
  br label %66

66:                                               ; preds = %60, %54
  call void @llvm.lifetime.end.p0(i64 4, ptr %10) #12
  call void @llvm.lifetime.start.p0(i64 4, ptr %11) #12
  %67 = load ptr, ptr %8, align 8, !tbaa !71
  %68 = load ptr, ptr %4, align 8, !tbaa !66
  %69 = getelementptr inbounds nuw %struct.dt_lib_module_info_t, ptr %68, i32 0, i32 0
  %70 = load ptr, ptr %69, align 8, !tbaa !73
  %71 = call i32 @sqlite3_bind_text(ptr noundef %67, i32 noundef 2, ptr noundef %70, i32 noundef -1, ptr noundef inttoptr (i64 -1 to ptr))
  store i32 %71, ptr %11, align 4, !tbaa !62
  %72 = load i32, ptr %11, align 4, !tbaa !62
  %73 = icmp ne i32 %72, 0
  br i1 %73, label %74, label %80

74:                                               ; preds = %66
  %75 = load ptr, ptr @stderr, align 8, !tbaa !69
  %76 = load ptr, ptr getelementptr inbounds nuw (%struct.darktable_t, ptr @darktable, i32 0, i32 18), align 8, !tbaa !68
  %77 = call ptr @dt_database_get(ptr noundef %76)
  %78 = call ptr @sqlite3_errmsg(ptr noundef %77)
  %79 = call i32 (ptr, ptr, ...) @fprintf(ptr noundef %75, ptr noundef @.str.6, ptr noundef @.str.3, i32 noundef 130, ptr noundef @__FUNCTION__.edit_preset, ptr noundef %78) #12
  br label %80

80:                                               ; preds = %74, %66
  call void @llvm.lifetime.end.p0(i64 4, ptr %11) #12
  call void @llvm.lifetime.start.p0(i64 4, ptr %12) #12
  %81 = load ptr, ptr %8, align 8, !tbaa !71
  %82 = load ptr, ptr %4, align 8, !tbaa !66
  %83 = getelementptr inbounds nuw %struct.dt_lib_module_info_t, ptr %82, i32 0, i32 1
  %84 = load i32, ptr %83, align 8, !tbaa !75
  %85 = call i32 @sqlite3_bind_int(ptr noundef %81, i32 noundef 3, i32 noundef %84)
  store i32 %85, ptr %12, align 4, !tbaa !62
  %86 = load i32, ptr %12, align 4, !tbaa !62
  %87 = icmp ne i32 %86, 0
  br i1 %87, label %88, label %94

88:                                               ; preds = %80
  %89 = load ptr, ptr @stderr, align 8, !tbaa !69
  %90 = load ptr, ptr getelementptr inbounds nuw (%struct.darktable_t, ptr @darktable, i32 0, i32 18), align 8, !tbaa !68
  %91 = call ptr @dt_database_get(ptr noundef %90)
  %92 = call ptr @sqlite3_errmsg(ptr noundef %91)
  %93 = call i32 (ptr, ptr, ...) @fprintf(ptr noundef %89, ptr noundef @.str.6, ptr noundef @.str.3, i32 noundef 131, ptr noundef @__FUNCTION__.edit_preset, ptr noundef %92) #12
  br label %94

94:                                               ; preds = %88, %80
  call void @llvm.lifetime.end.p0(i64 4, ptr %12) #12
  %95 = load ptr, ptr %8, align 8, !tbaa !71
  %96 = call i32 @sqlite3_step(ptr noundef %95)
  %97 = icmp eq i32 %96, 100
  br i1 %97, label %98, label %101

98:                                               ; preds = %94
  %99 = load ptr, ptr %8, align 8, !tbaa !71
  %100 = call i32 @sqlite3_column_int(ptr noundef %99, i32 noundef 0)
  store i32 %100, ptr %7, align 4, !tbaa !62
  br label %101

101:                                              ; preds = %98, %94
  %102 = load ptr, ptr %8, align 8, !tbaa !71
  %103 = call i32 @sqlite3_finalize(ptr noundef %102)
  %104 = load i32, ptr %7, align 4, !tbaa !62
  %105 = icmp slt i32 %104, 0
  br i1 %105, label %106, label %107

106:                                              ; preds = %101
  store i32 1, ptr %6, align 4
  br label %120

107:                                              ; preds = %101
  call void @llvm.lifetime.start.p0(i64 8, ptr %13) #12
  %108 = load ptr, ptr getelementptr inbounds nuw (%struct.darktable_t, ptr @darktable, i32 0, i32 14), align 8, !tbaa !141
  %109 = getelementptr inbounds nuw %struct.dt_gui_gtk_t, ptr %108, i32 0, i32 0
  %110 = load ptr, ptr %109, align 8, !tbaa !142
  %111 = call ptr @dt_ui_main_window(ptr noundef %110)
  store ptr %111, ptr %13, align 8, !tbaa !111
  %112 = load ptr, ptr %5, align 8, !tbaa !63
  %113 = load ptr, ptr %4, align 8, !tbaa !66
  %114 = getelementptr inbounds nuw %struct.dt_lib_module_info_t, ptr %113, i32 0, i32 0
  %115 = load ptr, ptr %114, align 8, !tbaa !73
  %116 = load i32, ptr %7, align 4, !tbaa !62
  %117 = load ptr, ptr %13, align 8, !tbaa !111
  %118 = call i64 @gtk_window_get_type() #15
  %119 = call ptr @g_type_check_instance_cast(ptr noundef %117, i64 noundef %118)
  call void @dt_gui_presets_show_edit_dialog(ptr noundef %112, ptr noundef %115, i32 noundef %116, ptr noundef null, ptr noundef null, i32 noundef 1, i32 noundef 1, i32 noundef 0, ptr noundef %119)
  call void @llvm.lifetime.end.p0(i64 8, ptr %13) #12
  store i32 0, ptr %6, align 4
  br label %120

120:                                              ; preds = %107, %106
  call void @llvm.lifetime.end.p0(i64 8, ptr %8) #12
  call void @llvm.lifetime.end.p0(i64 4, ptr %7) #12
  br label %121

121:                                              ; preds = %120, %21
  call void @llvm.lifetime.end.p0(i64 8, ptr %5) #12
  %122 = load i32, ptr %6, align 4
  switch i32 %122, label %124 [
    i32 0, label %123
    i32 1, label %123
  ]

123:                                              ; preds = %121, %121
  ret void

124:                                              ; preds = %121
  unreachable
}