; Function Attrs: nounwind uwtable
define internal fastcc void @edit_preset(ptr noundef %0, ptr noundef readonly captures(none) %1) unnamed_addr #0 {
  %3 = alloca ptr, align 8
  %4 = icmp eq ptr %0, null
  br i1 %4, label %5, label %8

5:                                                ; preds = %2
  %6 = tail call ptr @dt_lib_get_active_preset_name(ptr noundef %1)
  %7 = icmp eq ptr %6, null
  br i1 %7, label %73, label %10

8:                                                ; preds = %2
  %9 = tail call noalias ptr @g_strdup(ptr noundef nonnull %0) #19
  br label %10

10:                                               ; preds = %5, %8
  %.0 = phi ptr [ %6, %5 ], [ %9, %8 ]
  call void @llvm.lifetime.start.p0(i64 8, ptr nonnull %3) #19
  %11 = load i32, ptr getelementptr inbounds nuw (i8, ptr @darktable, i64 8), align 8, !tbaa !59
  %12 = and i32 %11, 256
  %.not = icmp eq i32 %12, 0
  br i1 %.not, label %14, label %13

13:                                               ; preds = %10
  tail call void (ptr, ...) @dt_print_ext(ptr noundef nonnull @.str.2, ptr noundef nonnull @.str.3, i32 noundef 127, ptr noundef nonnull @__FUNCTION__.edit_preset, ptr noundef nonnull @.str.69) #19
  br label %14

14:                                               ; preds = %13, %10
  %15 = load ptr, ptr getelementptr inbounds nuw (i8, ptr @darktable, i64 136), align 8, !tbaa !60
  %16 = tail call ptr @dt_database_get(ptr noundef %15) #19
  %17 = call i32 @sqlite3_prepare_v2(ptr noundef %16, ptr noundef nonnull @.str.69, i32 noundef -1, ptr noundef nonnull %3, ptr noundef null) #19
  %.not18 = icmp eq i32 %17, 0
  br i1 %.not18, label %24, label %18

18:                                               ; preds = %14
  %19 = load ptr, ptr @stderr, align 8, !tbaa !61
  %20 = load ptr, ptr getelementptr inbounds nuw (i8, ptr @darktable, i64 136), align 8, !tbaa !60
  %21 = call ptr @dt_database_get(ptr noundef %20) #19
  %22 = call ptr @sqlite3_errmsg(ptr noundef %21) #19
  %23 = call i32 (ptr, ptr, ...) @fprintf(ptr noundef %19, ptr noundef nonnull @.str.5, ptr noundef nonnull @.str.3, i32 noundef 127, ptr noundef nonnull @__FUNCTION__.edit_preset, ptr noundef nonnull @.str.69, ptr noundef %22) #20
  br label %24

24:                                               ; preds = %18, %14
  %25 = load ptr, ptr %3, align 8, !tbaa !63
  %26 = call i32 @sqlite3_bind_text(ptr noundef %25, i32 noundef 1, ptr noundef %.0, i32 noundef -1, ptr noundef nonnull inttoptr (i64 -1 to ptr)) #19
  %.not19 = icmp eq i32 %26, 0
  br i1 %.not19, label %33, label %27

27:                                               ; preds = %24
  %28 = load ptr, ptr @stderr, align 8, !tbaa !61
  %29 = load ptr, ptr getelementptr inbounds nuw (i8, ptr @darktable, i64 136), align 8, !tbaa !60
  %30 = call ptr @dt_database_get(ptr noundef %29) #19
  %31 = call ptr @sqlite3_errmsg(ptr noundef %30) #19
  %32 = call i32 (ptr, ptr, ...) @fprintf(ptr noundef %28, ptr noundef nonnull @.str.6, ptr noundef nonnull @.str.3, i32 noundef 129, ptr noundef nonnull @__FUNCTION__.edit_preset, ptr noundef %31) #20
  br label %33

33:                                               ; preds = %27, %24
  %34 = load ptr, ptr %3, align 8, !tbaa !63
  %35 = load ptr, ptr %1, align 8, !tbaa !65
  %36 = call i32 @sqlite3_bind_text(ptr noundef %34, i32 noundef 2, ptr noundef %35, i32 noundef -1, ptr noundef nonnull inttoptr (i64 -1 to ptr)) #19
  %.not20 = icmp eq i32 %36, 0
  br i1 %.not20, label %43, label %37

37:                                               ; preds = %33
  %38 = load ptr, ptr @stderr, align 8, !tbaa !61
  %39 = load ptr, ptr getelementptr inbounds nuw (i8, ptr @darktable, i64 136), align 8, !tbaa !60
  %40 = call ptr @dt_database_get(ptr noundef %39) #19
  %41 = call ptr @sqlite3_errmsg(ptr noundef %40) #19
  %42 = call i32 (ptr, ptr, ...) @fprintf(ptr noundef %38, ptr noundef nonnull @.str.6, ptr noundef nonnull @.str.3, i32 noundef 130, ptr noundef nonnull @__FUNCTION__.edit_preset, ptr noundef %41) #20
  br label %43

43:                                               ; preds = %37, %33
  %44 = load ptr, ptr %3, align 8, !tbaa !63
  %45 = getelementptr inbounds nuw i8, ptr %1, i64 8
  %46 = load i32, ptr %45, align 8, !tbaa !68
  %47 = call i32 @sqlite3_bind_int(ptr noundef %44, i32 noundef 3, i32 noundef %46) #19
  %.not21 = icmp eq i32 %47, 0
  br i1 %.not21, label %54, label %48

48:                                               ; preds = %43
  %49 = load ptr, ptr @stderr, align 8, !tbaa !61
  %50 = load ptr, ptr getelementptr inbounds nuw (i8, ptr @darktable, i64 136), align 8, !tbaa !60
  %51 = call ptr @dt_database_get(ptr noundef %50) #19
  %52 = call ptr @sqlite3_errmsg(ptr noundef %51) #19
  %53 = call i32 (ptr, ptr, ...) @fprintf(ptr noundef %49, ptr noundef nonnull @.str.6, ptr noundef nonnull @.str.3, i32 noundef 131, ptr noundef nonnull @__FUNCTION__.edit_preset, ptr noundef %52) #20
  br label %54

54:                                               ; preds = %48, %43
  %55 = load ptr, ptr %3, align 8, !tbaa !63
  %56 = call i32 @sqlite3_step(ptr noundef %55) #19
  %57 = icmp eq i32 %56, 100
  %58 = load ptr, ptr %3, align 8, !tbaa !63
  br i1 %57, label %60, label %.thread

.thread:                                          ; preds = %54
  %59 = call i32 @sqlite3_finalize(ptr noundef %58) #19
  br label %72

60:                                               ; preds = %54
  %61 = call i32 @sqlite3_column_int(ptr noundef %58, i32 noundef 0) #19
  %62 = load ptr, ptr %3, align 8, !tbaa !63
  %63 = call i32 @sqlite3_finalize(ptr noundef %62) #19
  %64 = icmp slt i32 %61, 0
  br i1 %64, label %72, label %65

65:                                               ; preds = %60
  %66 = load ptr, ptr getelementptr inbounds nuw (i8, ptr @darktable, i64 104), align 8, !tbaa !105
  %67 = load ptr, ptr %66, align 8, !tbaa !120
  %68 = call ptr @dt_ui_main_window(ptr noundef %67) #19
  %69 = load ptr, ptr %1, align 8, !tbaa !65
  %70 = tail call i64 @gtk_window_get_type() #23
  %71 = call ptr @g_type_check_instance_cast(ptr noundef %68, i64 noundef %70) #19
  call void @dt_gui_presets_show_edit_dialog(ptr noundef %.0, ptr noundef %69, i32 noundef %61, ptr noundef null, ptr noundef null, i32 noundef 1, i32 noundef 1, i32 noundef 0, ptr noundef %71) #19
  br label %72

72:                                               ; preds = %.thread, %60, %65
  call void @llvm.lifetime.end.p0(i64 8, ptr nonnull %3) #19
  br label %73

73:                                               ; preds = %5, %72
  ret void
}